target datalayout = "e-m:e-p270:32:32-p271:32:32-p272:64:64-i64:64-i128:128-f80:128-n8:16:32:64-S128"
target triple = "x86_64-unknown-linux-gnu"

%class.btVector3 = type { [4 x float] }
%class.btTransform = type { %class.btMatrix3x3, %class.btVector3 }
%class.btMatrix3x3 = type { [3 x %class.btVector3] }
%struct.btBroadphaseProxy = type <{ ptr, i32, i32, i32, %class.btVector3, %class.btVector3, [4 x i8] }>
%class.btCollisionObject = type <{ ptr, %class.btTransform, %class.btTransform, %class.btVector3, %class.btVector3, %class.btVector3, i32, float, ptr, ptr, ptr, ptr, i32, i32, i32, i32, i32, float, float, float, float, float, float, float, i32, [4 x i8], ptr, i32, i32, i32, float, float, float, i32, [4 x i8], %class.btAlignedObjectArray.0, i32, %class.btVector3, [4 x i8] }>
%class.btAlignedObjectArray.0 = type <{ %class.btAlignedAllocator.1, [3 x i8], i32, i32, [4 x i8], ptr, i8, [7 x i8] }>
%class.btAlignedAllocator.1 = type { i8 }

; Function Attrs: mustprogress nounwind uwtable
define linkonce_odr dso_local noundef ptr @_ZNK17btCollisionObject19getBroadphaseHandleEv(ptr noundef nonnull align 8 dereferenceable(372) %this) #1 comdat align 2 {
entry:
  %this.addr = alloca ptr, align 8
  store ptr %this, ptr %this.addr, align 8
  %this1 = load ptr, ptr %this.addr, align 8
  %m_broadphaseHandle = getelementptr inbounds %class.btCollisionObject, ptr %this1, i32 0, i32 8
  %0 = load ptr, ptr %m_broadphaseHandle, align 8
  ret ptr %0
}

; Function Attrs: mustprogress uwtable
define dso_local noundef zeroext i1 @_ZN30btKinematicCharacterController14needsCollisionEPK17btCollisionObjectS2_(ptr noundef nonnull align 8 dereferenceable(319) %this, ptr noundef %body0, ptr noundef %body1) unnamed_addr #3 align 2 {
entry:
  %this.addr = alloca ptr, align 8
  %body0.addr = alloca ptr, align 8
  %body1.addr = alloca ptr, align 8
  %collides = alloca i8, align 1
  store ptr %this, ptr %this.addr, align 8
  store ptr %body0, ptr %body0.addr, align 8
  store ptr %body1, ptr %body1.addr, align 8
  %0 = load ptr, ptr %body0.addr, align 8
  %call = call noundef ptr @_ZNK17btCollisionObject19getBroadphaseHandleEv(ptr noundef nonnull align 8 dereferenceable(372) %0)
  %m_collisionFilterGroup = getelementptr inbounds %struct.btBroadphaseProxy, ptr %call, i32 0, i32 1
  %1 = load i32, ptr %m_collisionFilterGroup, align 8
  %2 = load ptr, ptr %body1.addr, align 8
  %call2 = call noundef ptr @_ZNK17btCollisionObject19getBroadphaseHandleEv(ptr noundef nonnull align 8 dereferenceable(372) %2)
  %m_collisionFilterMask = getelementptr inbounds %struct.btBroadphaseProxy, ptr %call2, i32 0, i32 2
  %3 = load i32, ptr %m_collisionFilterMask, align 4
  %and = and i32 %1, %3
  %cmp = icmp ne i32 %and, 0
  %frombool = zext i1 %cmp to i8
  store i8 %frombool, ptr %collides, align 1
  %4 = load i8, ptr %collides, align 1
  %tobool = trunc i8 %4 to i1
  br i1 %tobool, label %land.rhs, label %land.end

land.rhs:                                         ; preds = %entry
  %5 = load ptr, ptr %body1.addr, align 8
  %call3 = call noundef ptr @_ZNK17btCollisionObject19getBroadphaseHandleEv(ptr noundef nonnull align 8 dereferenceable(372) %5)
  %m_collisionFilterGroup4 = getelementptr inbounds %struct.btBroadphaseProxy, ptr %call3, i32 0, i32 1
  %6 = load i32, ptr %m_collisionFilterGroup4, align 8
  %7 = load ptr, ptr %body0.addr, align 8
  %call5 = call noundef ptr @_ZNK17btCollisionObject19getBroadphaseHandleEv(ptr noundef nonnull align 8 dereferenceable(372) %7)
  %m_collisionFilterMask6 = getelementptr inbounds %struct.btBroadphaseProxy, ptr %call5, i32 0, i32 2
  %8 = load i32, ptr %m_collisionFilterMask6, align 4
  %and7 = and i32 %6, %8
  %tobool8 = icmp ne i32 %and7, 0
  br label %land.end

land.end:                                         ; preds = %land.rhs, %entry
  %9 = phi i1 [ false, %entry ], [ %tobool8, %land.rhs ]
  %frombool9 = zext i1 %9 to i8
  store i8 %frombool9, ptr %collides, align 1
  %10 = load i8, ptr %collides, align 1
  %tobool10 = trunc i8 %10 to i1
  ret i1 %tobool10
}