; Function Attrs: mustprogress nofree norecurse nosync nounwind willreturn memory(read, inaccessiblemem: none) uwtable
define dso_local noundef zeroext i1 @_ZN30btKinematicCharacterController14needsCollisionEPK17btCollisionObjectS2_(ptr nocapture nonnull readnone align 8 %this, ptr nocapture noundef readonly %body0, ptr nocapture noundef readonly %body1) unnamed_addr #8 align 2 {
entry:
  %m_broadphaseHandle.i = getelementptr inbounds i8, ptr %body0, i64 192
  %0 = load ptr, ptr %m_broadphaseHandle.i, align 8
  %m_collisionFilterGroup = getelementptr inbounds i8, ptr %0, i64 8
  %1 = load i32, ptr %m_collisionFilterGroup, align 8
  %m_broadphaseHandle.i4 = getelementptr inbounds i8, ptr %body1, i64 192
  %2 = load ptr, ptr %m_broadphaseHandle.i4, align 8
  %m_collisionFilterMask = getelementptr inbounds i8, ptr %2, i64 12
  %3 = load i32, ptr %m_collisionFilterMask, align 4
  %and = and i32 %3, %1
  %cmp.not = icmp eq i32 %and, 0
  br i1 %cmp.not, label %land.end, label %land.rhs

land.rhs:                                         ; preds = %entry
  %m_collisionFilterGroup4 = getelementptr inbounds i8, ptr %2, i64 8
  %4 = load i32, ptr %m_collisionFilterGroup4, align 8
  %m_collisionFilterMask6 = getelementptr inbounds i8, ptr %0, i64 12
  %5 = load i32, ptr %m_collisionFilterMask6, align 4
  %and7 = and i32 %5, %4
  %tobool8 = icmp ne i32 %and7, 0
  br label %land.end

land.end:                                         ; preds = %land.rhs, %entry
  %6 = phi i1 [ false, %entry ], [ %tobool8, %land.rhs ]
  ret i1 %6
}